target datalayout = "e-m:e-p270:32:32-p271:32:32-p272:64:64-i64:64-i128:128-f80:128-n8:16:32:64-S128"
target triple = "x86_64-pc-linux-gnu"

%struct.UConverterAlias = type { ptr, ptr, ptr, ptr, ptr, ptr, ptr, ptr, ptr, i32, i32, i32, i32, i32, i32, i32, i32, i32 }

@_ZL10gMainTable = internal global %struct.UConverterAlias zeroinitializer, align 8

; Function Attrs: inlinehint mustprogress nounwind uwtable
define internal noundef signext i8 @_ZL7isAliasPKcP10UErrorCode(ptr noundef %0, ptr noundef %1) #3 {
  %3 = alloca i8, align 1
  %4 = alloca ptr, align 8
  %5 = alloca ptr, align 8
  store ptr %0, ptr %4, align 8, !tbaa !3
  store ptr %1, ptr %5, align 8, !tbaa !17
  %6 = load ptr, ptr %4, align 8, !tbaa !3
  %7 = icmp eq ptr %6, null
  br i1 %7, label %8, label %10

8:                                                ; preds = %2
  %9 = load ptr, ptr %5, align 8, !tbaa !17
  store i32 1, ptr %9, align 4, !tbaa !26
  store i8 0, ptr %3, align 1
  br label %16

10:                                               ; preds = %2
  %11 = load ptr, ptr %4, align 8, !tbaa !3
  %12 = load i8, ptr %11, align 1, !tbaa !8
  %13 = sext i8 %12 to i32
  %14 = icmp ne i32 %13, 0
  %15 = zext i1 %14 to i8
  store i8 %15, ptr %3, align 1
  br label %16

16:                                               ; preds = %10, %8
  %17 = load i8, ptr %3, align 1
  ret i8 %17
}

; Function Attrs: mustprogress uwtable
define internal noundef zeroext i16 @_ZL18ucnv_io_getAliasesPKctPS0_P10UErrorCode(ptr noundef %0, i16 noundef zeroext %1, ptr noundef %2, ptr noundef %3) #2 {
  %5 = alloca ptr, align 8
  %6 = alloca i16, align 2
  %7 = alloca ptr, align 8
  %8 = alloca ptr, align 8
  %9 = alloca i32, align 4
  %10 = alloca i32, align 4
  %11 = alloca i32, align 4
  %12 = alloca i32, align 4
  %13 = alloca ptr, align 8
  store ptr %0, ptr %5, align 8, !tbaa !3
  store i16 %1, ptr %6, align 2, !tbaa !23
  store ptr %2, ptr %7, align 8, !tbaa !54
  store ptr %3, ptr %8, align 8, !tbaa !17
  %14 = load ptr, ptr %8, align 8, !tbaa !17
  %15 = call noundef signext i8 @_ZL13haveAliasDataP10UErrorCode(ptr noundef %14)
  %16 = icmp ne i8 %15, 0
  br i1 %16, label %17, label %81

17:                                               ; preds = %4
  %18 = load ptr, ptr %5, align 8, !tbaa !3
  %19 = load ptr, ptr %8, align 8, !tbaa !17
  %20 = call noundef signext i8 @_ZL7isAliasPKcP10UErrorCode(ptr noundef %18, ptr noundef %19)
  %21 = icmp ne i8 %20, 0
  br i1 %21, label %22, label %81

22:                                               ; preds = %17
  call void @llvm.lifetime.start.p0(i64 4, ptr %9) #12
  call void @llvm.lifetime.start.p0(i64 4, ptr %10) #12
  %23 = load ptr, ptr %5, align 8, !tbaa !3
  %24 = load ptr, ptr %8, align 8, !tbaa !17
  %25 = call noundef i32 @_ZL13findConverterPKcPaP10UErrorCode(ptr noundef %23, ptr noundef null, ptr noundef %24)
  store i32 %25, ptr %10, align 4, !tbaa !14
  %26 = load i32, ptr %10, align 4, !tbaa !14
  %27 = load i32, ptr getelementptr inbounds nuw (%struct.UConverterAlias, ptr @_ZL10gMainTable, i32 0, i32 9), align 8, !tbaa !18
  %28 = icmp ult i32 %26, %27
  br i1 %28, label %29, label %80

29:                                               ; preds = %22
  call void @llvm.lifetime.start.p0(i64 4, ptr %11) #12
  %30 = load ptr, ptr getelementptr inbounds nuw (%struct.UConverterAlias, ptr @_ZL10gMainTable, i32 0, i32 4), align 8, !tbaa !48
  %31 = load i32, ptr getelementptr inbounds nuw (%struct.UConverterAlias, ptr @_ZL10gMainTable, i32 0, i32 10), align 4, !tbaa !47
  %32 = sub i32 %31, 1
  %33 = load i32, ptr getelementptr inbounds nuw (%struct.UConverterAlias, ptr @_ZL10gMainTable, i32 0, i32 9), align 8, !tbaa !18
  %34 = mul i32 %32, %33
  %35 = load i32, ptr %10, align 4, !tbaa !14
  %36 = add i32 %34, %35
  %37 = zext i32 %36 to i64
  %38 = getelementptr inbounds nuw i16, ptr %30, i64 %37
  %39 = load i16, ptr %38, align 2, !tbaa !23
  %40 = zext i16 %39 to i32
  store i32 %40, ptr %11, align 4, !tbaa !14
  %41 = load i32, ptr %11, align 4, !tbaa !14
  %42 = icmp ne i32 %41, 0
  br i1 %42, label %43, label %79

43:                                               ; preds = %29
  call void @llvm.lifetime.start.p0(i64 4, ptr %12) #12
  %44 = load ptr, ptr getelementptr inbounds nuw (%struct.UConverterAlias, ptr @_ZL10gMainTable, i32 0, i32 5), align 8, !tbaa !49
  %45 = load i32, ptr %11, align 4, !tbaa !14
  %46 = sext i32 %45 to i64
  %47 = getelementptr inbounds i16, ptr %44, i64 %46
  %48 = load i16, ptr %47, align 2, !tbaa !23
  %49 = zext i16 %48 to i32
  store i32 %49, ptr %12, align 4, !tbaa !14
  call void @llvm.lifetime.start.p0(i64 8, ptr %13) #12
  %50 = load ptr, ptr getelementptr inbounds nuw (%struct.UConverterAlias, ptr @_ZL10gMainTable, i32 0, i32 5), align 8, !tbaa !49
  %51 = load i32, ptr %11, align 4, !tbaa !14
  %52 = sext i32 %51 to i64
  %53 = getelementptr inbounds i16, ptr %50, i64 %52
  %54 = getelementptr inbounds i16, ptr %53, i64 1
  store ptr %54, ptr %13, align 8, !tbaa !53
  %55 = load i16, ptr %6, align 2, !tbaa !23
  %56 = zext i16 %55 to i32
  store i32 %56, ptr %9, align 4, !tbaa !14
  br label %57

57:                                               ; preds = %75, %43
  %58 = load i32, ptr %9, align 4, !tbaa !14
  %59 = load i32, ptr %12, align 4, !tbaa !14
  %60 = icmp ult i32 %58, %59
  br i1 %60, label %61, label %78

61:                                               ; preds = %57
  %62 = load ptr, ptr getelementptr inbounds nuw (%struct.UConverterAlias, ptr @_ZL10gMainTable, i32 0, i32 7), align 8, !tbaa !21
  %63 = load ptr, ptr %13, align 8, !tbaa !53
  %64 = load i32, ptr %9, align 4, !tbaa !14
  %65 = zext i32 %64 to i64
  %66 = getelementptr inbounds nuw i16, ptr %63, i64 %65
  %67 = load i16, ptr %66, align 2, !tbaa !23
  %68 = zext i16 %67 to i32
  %69 = sext i32 %68 to i64
  %70 = getelementptr inbounds i16, ptr %62, i64 %69
  %71 = load ptr, ptr %7, align 8, !tbaa !54
  %72 = load i32, ptr %9, align 4, !tbaa !14
  %73 = zext i32 %72 to i64
  %74 = getelementptr inbounds nuw ptr, ptr %71, i64 %73
  store ptr %70, ptr %74, align 8, !tbaa !3
  br label %75

75:                                               ; preds = %61
  %76 = load i32, ptr %9, align 4, !tbaa !14
  %77 = add i32 %76, 1
  store i32 %77, ptr %9, align 4, !tbaa !14
  br label %57, !llvm.loop !57

78:                                               ; preds = %57
  call void @llvm.lifetime.end.p0(i64 8, ptr %13) #12
  call void @llvm.lifetime.end.p0(i64 4, ptr %12) #12
  br label %79

79:                                               ; preds = %78, %29
  call void @llvm.lifetime.end.p0(i64 4, ptr %11) #12
  br label %80

80:                                               ; preds = %79, %22
  call void @llvm.lifetime.end.p0(i64 4, ptr %10) #12
  call void @llvm.lifetime.end.p0(i64 4, ptr %9) #12
  br label %81

81:                                               ; preds = %80, %17, %4
  ret i16 0
}

; Function Attrs: mustprogress uwtable
define void @ucnv_getAliases_77(ptr noundef %0, ptr noundef %1, ptr noundef %2) #2 {
  %4 = alloca ptr, align 8
  %5 = alloca ptr, align 8
  %6 = alloca ptr, align 8
  store ptr %0, ptr %4, align 8, !tbaa !3
  store ptr %1, ptr %5, align 8, !tbaa !54
  store ptr %2, ptr %6, align 8, !tbaa !17
  %7 = load ptr, ptr %4, align 8, !tbaa !3
  %8 = load ptr, ptr %5, align 8, !tbaa !54
  %9 = load ptr, ptr %6, align 8, !tbaa !17
  %10 = call noundef zeroext i16 @_ZL18ucnv_io_getAliasesPKctPS0_P10UErrorCode(ptr noundef %7, i16 noundef zeroext 0, ptr noundef %8, ptr noundef %9)
  ret void
}