; Function Attrs: mustprogress uwtable
define void @ucnv_getAliases_77(ptr noundef readonly %0, ptr noundef writeonly captures(none) %1, ptr noundef %2) local_unnamed_addr #3 {
  %4 = tail call fastcc noundef signext i8 @_ZL13haveAliasDataP10UErrorCode(ptr noundef %2)
  %.not.i = icmp eq i8 %4, 0
  br i1 %.not.i, label %_ZL18ucnv_io_getAliasesPKctPS0_P10UErrorCode.exit, label %5

5:                                                ; preds = %3
  %6 = icmp eq ptr %0, null
  br i1 %6, label %_ZL7isAliasPKcP10UErrorCode.exit.thread.i, label %_ZL7isAliasPKcP10UErrorCode.exit.i

_ZL7isAliasPKcP10UErrorCode.exit.thread.i:        ; preds = %5
  store i32 1, ptr %2, align 4, !tbaa !13
  br label %_ZL18ucnv_io_getAliasesPKctPS0_P10UErrorCode.exit

_ZL7isAliasPKcP10UErrorCode.exit.i:               ; preds = %5
  %7 = load i8, ptr %0, align 1, !tbaa !3
  %.not24.i = icmp eq i8 %7, 0
  br i1 %.not24.i, label %_ZL18ucnv_io_getAliasesPKctPS0_P10UErrorCode.exit, label %8

8:                                                ; preds = %_ZL7isAliasPKcP10UErrorCode.exit.i
  %9 = tail call fastcc noundef i32 @_ZL13findConverterPKcPaP10UErrorCode(ptr noundef nonnull readonly %0, ptr noundef null, ptr noundef %2)
  %10 = load i32, ptr getelementptr inbounds nuw (i8, ptr @_ZL10gMainTable, i64 72), align 8, !tbaa !15
  %11 = icmp ult i32 %9, %10
  br i1 %11, label %12, label %_ZL18ucnv_io_getAliasesPKctPS0_P10UErrorCode.exit

12:                                               ; preds = %8
  %13 = load ptr, ptr getelementptr inbounds nuw (i8, ptr @_ZL10gMainTable, i64 32), align 8, !tbaa !38
  %14 = load i32, ptr getelementptr inbounds nuw (i8, ptr @_ZL10gMainTable, i64 76), align 4, !tbaa !27
  %15 = add i32 %14, -1
  %16 = mul i32 %15, %10
  %17 = add i32 %16, %9
  %18 = zext i32 %17 to i64
  %19 = getelementptr inbounds nuw i16, ptr %13, i64 %18
  %20 = load i16, ptr %19, align 2, !tbaa !22
  %.not21.i = icmp eq i16 %20, 0
  br i1 %.not21.i, label %_ZL18ucnv_io_getAliasesPKctPS0_P10UErrorCode.exit, label %21

21:                                               ; preds = %12
  %22 = load ptr, ptr getelementptr inbounds nuw (i8, ptr @_ZL10gMainTable, i64 40), align 8, !tbaa !39
  %23 = zext i16 %20 to i64
  %24 = getelementptr inbounds nuw i16, ptr %22, i64 %23
  %25 = load i16, ptr %24, align 2, !tbaa !22
  %26 = getelementptr inbounds nuw i8, ptr %24, i64 2
  %.not26.i = icmp eq i16 %25, 0
  br i1 %.not26.i, label %_ZL18ucnv_io_getAliasesPKctPS0_P10UErrorCode.exit, label %.lr.ph.i

.lr.ph.i:                                         ; preds = %21
  %27 = load ptr, ptr getelementptr inbounds nuw (i8, ptr @_ZL10gMainTable, i64 56), align 8, !tbaa !20
  %wide.trip.count.i = zext i16 %25 to i64
  br label %28

28:                                               ; preds = %28, %.lr.ph.i
  %indvars.iv.i = phi i64 [ 0, %.lr.ph.i ], [ %indvars.iv.next.i, %28 ]
  %29 = getelementptr inbounds nuw i16, ptr %26, i64 %indvars.iv.i
  %30 = load i16, ptr %29, align 2, !tbaa !22
  %31 = zext i16 %30 to i64
  %32 = getelementptr inbounds nuw i16, ptr %27, i64 %31
  %33 = getelementptr inbounds nuw ptr, ptr %1, i64 %indvars.iv.i
  store ptr %32, ptr %33, align 8, !tbaa !58
  %indvars.iv.next.i = add nuw nsw i64 %indvars.iv.i, 1
  %exitcond.not.i = icmp eq i64 %indvars.iv.next.i, %wide.trip.count.i
  br i1 %exitcond.not.i, label %_ZL18ucnv_io_getAliasesPKctPS0_P10UErrorCode.exit, label %28, !llvm.loop !60

_ZL18ucnv_io_getAliasesPKctPS0_P10UErrorCode.exit: ; preds = %28, %3, %_ZL7isAliasPKcP10UErrorCode.exit.thread.i, %_ZL7isAliasPKcP10UErrorCode.exit.i, %8, %12, %21
  ret void
}